target datalayout = "e-m:e-p270:32:32-p271:32:32-p272:64:64-i64:64-i128:128-f80:128-n8:16:32:64-S128"
target triple = "x86_64-pc-linux-gnu"

%struct.Aig_Obj_t_ = type { %union.anon, ptr, ptr, i64, i32, i32, %union.anon.0 }
%union.anon = type { ptr }
%union.anon.0 = type { ptr }
%struct.Vec_Ptr_t_ = type { i32, i32, ptr }
%struct.Aig_Man_t_ = type { ptr, ptr, ptr, ptr, ptr, ptr, ptr, %struct.Aig_Obj_t_, i32, i32, i32, i32, i32, i32, [7 x i32], i32, ptr, i32, ptr, i32, ptr, i32, i32, i32, ptr, i32, i32, i32, i32, i32, ptr, ptr, i32, ptr, ptr, i32, ptr, ptr, i32, i32, i32, ptr, ptr, ptr, ptr, ptr, ptr, ptr, ptr, ptr, ptr, ptr, ptr, ptr, ptr, i32, ptr, ptr, ptr, ptr, i32, i64, i64, i64, ptr, ptr }
%struct.Abc_Ntk_t_ = type { i32, i32, ptr, ptr, ptr, ptr, ptr, ptr, ptr, ptr, ptr, ptr, ptr, [11 x i32], i32, i32, i32, i32, ptr, i32, ptr, ptr, i32, i32, i32, double, i32, %struct.Vec_Int_t_, ptr, ptr, ptr, ptr, ptr, float, i32, ptr, ptr, ptr, ptr, ptr, ptr, ptr, ptr, ptr, ptr, ptr, ptr, ptr, ptr, ptr, ptr, ptr, ptr, ptr, ptr, ptr }
%struct.Vec_Int_t_ = type { i32, i32, ptr }

@.str = private unnamed_addr constant [13 x i8] c"csLiveConst_\00", align 1
@.str.1 = private unnamed_addr constant [14 x i8] c"csLiveTarget_\00", align 1

; Function Attrs: nounwind uwtable
define internal void @Vec_PtrGrow(ptr noundef %0, i32 noundef %1) #0 {
  %3 = alloca ptr, align 8
  %4 = alloca i32, align 4
  store ptr %0, ptr %3, align 8
  store i32 %1, ptr %4, align 4
  %5 = load ptr, ptr %3, align 8
  %6 = getelementptr inbounds %struct.Vec_Ptr_t_, ptr %5, i32 0, i32 0
  %7 = load i32, ptr %6, align 8
  %8 = load i32, ptr %4, align 4
  %9 = icmp sge i32 %7, %8
  br i1 %9, label %10, label %11

10:                                               ; preds = %2
  br label %36

11:                                               ; preds = %2
  %12 = load ptr, ptr %3, align 8
  %13 = getelementptr inbounds %struct.Vec_Ptr_t_, ptr %12, i32 0, i32 2
  %14 = load ptr, ptr %13, align 8
  %15 = icmp ne ptr %14, null
  br i1 %15, label %16, label %24

16:                                               ; preds = %11
  %17 = load ptr, ptr %3, align 8
  %18 = getelementptr inbounds %struct.Vec_Ptr_t_, ptr %17, i32 0, i32 2
  %19 = load ptr, ptr %18, align 8
  %20 = load i32, ptr %4, align 4
  %21 = sext i32 %20 to i64
  %22 = mul i64 8, %21
  %23 = call ptr @realloc(ptr noundef %19, i64 noundef %22) #10
  br label %29

24:                                               ; preds = %11
  %25 = load i32, ptr %4, align 4
  %26 = sext i32 %25 to i64
  %27 = mul i64 8, %26
  %28 = call noalias ptr @malloc(i64 noundef %27) #8
  br label %29

29:                                               ; preds = %24, %16
  %30 = phi ptr [ %23, %16 ], [ %28, %24 ]
  %31 = load ptr, ptr %3, align 8
  %32 = getelementptr inbounds %struct.Vec_Ptr_t_, ptr %31, i32 0, i32 2
  store ptr %30, ptr %32, align 8
  %33 = load i32, ptr %4, align 4
  %34 = load ptr, ptr %3, align 8
  %35 = getelementptr inbounds %struct.Vec_Ptr_t_, ptr %34, i32 0, i32 0
  store i32 %33, ptr %35, align 8
  br label %36

36:                                               ; preds = %29, %10
  ret void
}

; Function Attrs: nounwind uwtable
define internal i32 @Aig_IsComplement(ptr noundef %0) #0 {
  %2 = alloca ptr, align 8
  store ptr %0, ptr %2, align 8
  %3 = load ptr, ptr %2, align 8
  %4 = ptrtoint ptr %3 to i64
  %5 = and i64 %4, 1
  %6 = trunc i64 %5 to i32
  ret i32 %6
}

; Function Attrs: nounwind uwtable
define internal ptr @Aig_Regular(ptr noundef %0) #0 {
  %2 = alloca ptr, align 8
  store ptr %0, ptr %2, align 8
  %3 = load ptr, ptr %2, align 8
  %4 = ptrtoint ptr %3 to i64
  %5 = and i64 %4, -2
  %6 = inttoptr i64 %5 to ptr
  ret ptr %6
}

; Function Attrs: nounwind uwtable
define internal void @Vec_PtrPush(ptr noundef %0, ptr noundef %1) #0 {
  %3 = alloca ptr, align 8
  %4 = alloca ptr, align 8
  store ptr %0, ptr %3, align 8
  store ptr %1, ptr %4, align 8
  %5 = load ptr, ptr %3, align 8
  %6 = getelementptr inbounds %struct.Vec_Ptr_t_, ptr %5, i32 0, i32 1
  %7 = load i32, ptr %6, align 4
  %8 = load ptr, ptr %3, align 8
  %9 = getelementptr inbounds %struct.Vec_Ptr_t_, ptr %8, i32 0, i32 0
  %10 = load i32, ptr %9, align 8
  %11 = icmp eq i32 %7, %10
  br i1 %11, label %12, label %26

12:                                               ; preds = %2
  %13 = load ptr, ptr %3, align 8
  %14 = getelementptr inbounds %struct.Vec_Ptr_t_, ptr %13, i32 0, i32 0
  %15 = load i32, ptr %14, align 8
  %16 = icmp slt i32 %15, 16
  br i1 %16, label %17, label %19

17:                                               ; preds = %12
  %18 = load ptr, ptr %3, align 8
  call void @Vec_PtrGrow(ptr noundef %18, i32 noundef 16)
  br label %25

19:                                               ; preds = %12
  %20 = load ptr, ptr %3, align 8
  %21 = load ptr, ptr %3, align 8
  %22 = getelementptr inbounds %struct.Vec_Ptr_t_, ptr %21, i32 0, i32 0
  %23 = load i32, ptr %22, align 8
  %24 = mul nsw i32 2, %23
  call void @Vec_PtrGrow(ptr noundef %20, i32 noundef %24)
  br label %25

25:                                               ; preds = %19, %17
  br label %26

26:                                               ; preds = %25, %2
  %27 = load ptr, ptr %4, align 8
  %28 = load ptr, ptr %3, align 8
  %29 = getelementptr inbounds %struct.Vec_Ptr_t_, ptr %28, i32 0, i32 2
  %30 = load ptr, ptr %29, align 8
  %31 = load ptr, ptr %3, align 8
  %32 = getelementptr inbounds %struct.Vec_Ptr_t_, ptr %31, i32 0, i32 1
  %33 = load i32, ptr %32, align 4
  %34 = add nsw i32 %33, 1
  store i32 %34, ptr %32, align 4
  %35 = sext i32 %33 to i64
  %36 = getelementptr inbounds ptr, ptr %30, i64 %35
  store ptr %27, ptr %36, align 8
  ret void
}

; Function Attrs: nounwind uwtable
define internal ptr @Aig_NotCond(ptr noundef %0, i32 noundef %1) #0 {
  %3 = alloca ptr, align 8
  %4 = alloca i32, align 4
  store ptr %0, ptr %3, align 8
  store i32 %1, ptr %4, align 4
  %5 = load ptr, ptr %3, align 8
  %6 = ptrtoint ptr %5 to i64
  %7 = load i32, ptr %4, align 4
  %8 = sext i32 %7 to i64
  %9 = xor i64 %6, %8
  %10 = inttoptr i64 %9 to ptr
  ret ptr %10
}

; Function Attrs: nounwind uwtable
define internal i32 @Aig_ObjFaninC0(ptr noundef %0) #0 {
  %2 = alloca ptr, align 8
  store ptr %0, ptr %2, align 8
  %3 = load ptr, ptr %2, align 8
  %4 = getelementptr inbounds %struct.Aig_Obj_t_, ptr %3, i32 0, i32 1
  %5 = load ptr, ptr %4, align 8
  %6 = call i32 @Aig_IsComplement(ptr noundef %5)
  ret i32 %6
}

; Function Attrs: nounwind uwtable
define internal ptr @Aig_ObjFanin0(ptr noundef %0) #0 {
  %2 = alloca ptr, align 8
  store ptr %0, ptr %2, align 8
  %3 = load ptr, ptr %2, align 8
  %4 = getelementptr inbounds %struct.Aig_Obj_t_, ptr %3, i32 0, i32 1
  %5 = load ptr, ptr %4, align 8
  %6 = call ptr @Aig_Regular(ptr noundef %5)
  ret ptr %6
}

; Function Attrs: nounwind uwtable
define internal ptr @Abc_NtkPo(ptr noundef %0, i32 noundef %1) #0 {
  %3 = alloca ptr, align 8
  %4 = alloca i32, align 4
  store ptr %0, ptr %3, align 8
  store i32 %1, ptr %4, align 4
  %5 = load ptr, ptr %3, align 8
  %6 = getelementptr inbounds %struct.Abc_Ntk_t_, ptr %5, i32 0, i32 7
  %7 = load ptr, ptr %6, align 8
  %8 = load i32, ptr %4, align 4
  %9 = call ptr @Vec_PtrEntry(ptr noundef %7, i32 noundef %8)
  ret ptr %9
}

; Function Attrs: nounwind uwtable
define internal ptr @Vec_PtrEntry(ptr noundef %0, i32 noundef %1) #0 {
  %3 = alloca ptr, align 8
  %4 = alloca i32, align 4
  store ptr %0, ptr %3, align 8
  store i32 %1, ptr %4, align 4
  %5 = load ptr, ptr %3, align 8
  %6 = getelementptr inbounds %struct.Vec_Ptr_t_, ptr %5, i32 0, i32 2
  %7 = load ptr, ptr %6, align 8
  %8 = load i32, ptr %4, align 4
  %9 = sext i32 %8 to i64
  %10 = getelementptr inbounds ptr, ptr %7, i64 %9
  %11 = load ptr, ptr %10, align 8
  ret ptr %11
}

; Function Attrs: nounwind uwtable
define internal i32 @Saig_ManPoNum(ptr noundef %0) #0 {
  %2 = alloca ptr, align 8
  store ptr %0, ptr %2, align 8
  %3 = load ptr, ptr %2, align 8
  %4 = getelementptr inbounds %struct.Aig_Man_t_, ptr %3, i32 0, i32 10
  %5 = load i32, ptr %4, align 8
  ret i32 %5
}

; Function Attrs: nounwind uwtable
define internal ptr @Vec_PtrAlloc(i32 noundef %0) #0 {
  %2 = alloca i32, align 4
  %3 = alloca ptr, align 8
  store i32 %0, ptr %2, align 4
  %4 = call noalias ptr @malloc(i64 noundef 16) #8
  store ptr %4, ptr %3, align 8
  %5 = load i32, ptr %2, align 4
  %6 = icmp sgt i32 %5, 0
  br i1 %6, label %7, label %11

7:                                                ; preds = %1
  %8 = load i32, ptr %2, align 4
  %9 = icmp slt i32 %8, 8
  br i1 %9, label %10, label %11

10:                                               ; preds = %7
  store i32 8, ptr %2, align 4
  br label %11

11:                                               ; preds = %10, %7, %1
  %12 = load ptr, ptr %3, align 8
  %13 = getelementptr inbounds %struct.Vec_Ptr_t_, ptr %12, i32 0, i32 1
  store i32 0, ptr %13, align 4
  %14 = load i32, ptr %2, align 4
  %15 = load ptr, ptr %3, align 8
  %16 = getelementptr inbounds %struct.Vec_Ptr_t_, ptr %15, i32 0, i32 0
  store i32 %14, ptr %16, align 8
  %17 = load ptr, ptr %3, align 8
  %18 = getelementptr inbounds %struct.Vec_Ptr_t_, ptr %17, i32 0, i32 0
  %19 = load i32, ptr %18, align 8
  %20 = icmp ne i32 %19, 0
  br i1 %20, label %21, label %28

21:                                               ; preds = %11
  %22 = load ptr, ptr %3, align 8
  %23 = getelementptr inbounds %struct.Vec_Ptr_t_, ptr %22, i32 0, i32 0
  %24 = load i32, ptr %23, align 8
  %25 = sext i32 %24 to i64
  %26 = mul i64 8, %25
  %27 = call noalias ptr @malloc(i64 noundef %26) #8
  br label %29

28:                                               ; preds = %11
  br label %29

29:                                               ; preds = %28, %21
  %30 = phi ptr [ %27, %21 ], [ null, %28 ]
  %31 = load ptr, ptr %3, align 8
  %32 = getelementptr inbounds %struct.Vec_Ptr_t_, ptr %31, i32 0, i32 2
  store ptr %30, ptr %32, align 8
  %33 = load ptr, ptr %3, align 8
  ret ptr %33
}

; Function Attrs: nounwind uwtable
define ptr @collectCSSignals(ptr noundef %0, ptr noundef %1) #0 {
  %3 = alloca ptr, align 8
  %4 = alloca ptr, align 8
  %5 = alloca i32, align 4
  %6 = alloca ptr, align 8
  %7 = alloca ptr, align 8
  %8 = alloca ptr, align 8
  store ptr %0, ptr %3, align 8
  store ptr %1, ptr %4, align 8
  store ptr null, ptr %7, align 8
  %9 = call ptr @Vec_PtrAlloc(i32 noundef 1)
  store ptr %9, ptr %8, align 8
  store i32 0, ptr %5, align 4
  br label %10

10:                                               ; preds = %52, %2
  %11 = load i32, ptr %5, align 4
  %12 = load ptr, ptr %4, align 8
  %13 = call i32 @Saig_ManPoNum(ptr noundef %12)
  %14 = icmp slt i32 %11, %13
  br i1 %14, label %15, label %21

15:                                               ; preds = %10
  %16 = load ptr, ptr %4, align 8
  %17 = getelementptr inbounds %struct.Aig_Man_t_, ptr %16, i32 0, i32 3
  %18 = load ptr, ptr %17, align 8
  %19 = load i32, ptr %5, align 4
  %20 = call ptr @Vec_PtrEntry(ptr noundef %18, i32 noundef %19)
  store ptr %20, ptr %6, align 8
  br label %21

21:                                               ; preds = %15, %10
  %22 = phi i1 [ false, %10 ], [ true, %15 ]
  br i1 %22, label %23, label %55

23:                                               ; preds = %21
  %24 = load ptr, ptr %3, align 8
  %25 = load i32, ptr %5, align 4
  %26 = call ptr @Abc_NtkPo(ptr noundef %24, i32 noundef %25)
  %27 = call ptr @Abc_ObjName(ptr noundef %26)
  %28 = call ptr @strstr(ptr noundef %27, ptr noundef @.str) #7
  %29 = icmp ne ptr %28, null
  br i1 %29, label %30, label %37

30:                                               ; preds = %23
  %31 = load ptr, ptr %8, align 8
  %32 = load ptr, ptr %6, align 8
  %33 = call ptr @Aig_ObjFanin0(ptr noundef %32)
  %34 = load ptr, ptr %6, align 8
  %35 = call i32 @Aig_ObjFaninC0(ptr noundef %34)
  %36 = call ptr @Aig_NotCond(ptr noundef %33, i32 noundef %35)
  call void @Vec_PtrPush(ptr noundef %31, ptr noundef %36)
  br label %51

37:                                               ; preds = %23
  %38 = load ptr, ptr %3, align 8
  %39 = load i32, ptr %5, align 4
  %40 = call ptr @Abc_NtkPo(ptr noundef %38, i32 noundef %39)
  %41 = call ptr @Abc_ObjName(ptr noundef %40)
  %42 = call ptr @strstr(ptr noundef %41, ptr noundef @.str.1) #7
  %43 = icmp ne ptr %42, null
  br i1 %43, label %44, label %50

44:                                               ; preds = %37
  %45 = load ptr, ptr %6, align 8
  %46 = call ptr @Aig_ObjFanin0(ptr noundef %45)
  %47 = load ptr, ptr %6, align 8
  %48 = call i32 @Aig_ObjFaninC0(ptr noundef %47)
  %49 = call ptr @Aig_NotCond(ptr noundef %46, i32 noundef %48)
  store ptr %49, ptr %7, align 8
  br label %50

50:                                               ; preds = %44, %37
  br label %51

51:                                               ; preds = %50, %30
  br label %52

52:                                               ; preds = %51
  %53 = load i32, ptr %5, align 4
  %54 = add nsw i32 %53, 1
  store i32 %54, ptr %5, align 4
  br label %10, !llvm.loop !6

55:                                               ; preds = %21
  %56 = load ptr, ptr %8, align 8
  %57 = load ptr, ptr %7, align 8
  call void @Vec_PtrPush(ptr noundef %56, ptr noundef %57)
  %58 = load ptr, ptr %8, align 8
  ret ptr %58
}