; Function Attrs: nounwind uwtable
define noalias noundef ptr @collectCSSignals(ptr noundef readonly captures(none) %0, ptr noundef readonly captures(none) %1) local_unnamed_addr #0 {
  %3 = tail call noalias dereferenceable_or_null(16) ptr @malloc(i64 noundef 16) #10
  %4 = getelementptr inbounds nuw i8, ptr %3, i64 4
  store i32 0, ptr %4, align 4
  store i32 8, ptr %3, align 8
  %5 = tail call noalias dereferenceable_or_null(64) ptr @malloc(i64 noundef 64) #10
  %6 = getelementptr inbounds nuw i8, ptr %3, i64 8
  store ptr %5, ptr %6, align 8
  %7 = getelementptr i8, ptr %1, i64 112
  %.val1834 = load i32, ptr %7, align 8
  %8 = icmp sgt i32 %.val1834, 0
  br i1 %8, label %.lr.ph, label %.Vec_PtrGrow.exit11_crit_edge.i25

.lr.ph:                                           ; preds = %2
  %9 = getelementptr inbounds nuw i8, ptr %1, i64 24
  %10 = getelementptr i8, ptr %0, i64 48
  br label %11

11:                                               ; preds = %.lr.ph, %58
  %indvars.iv = phi i64 [ 0, %.lr.ph ], [ %indvars.iv.next, %58 ]
  %.01635 = phi ptr [ null, %.lr.ph ], [ %.1, %58 ]
  %12 = load ptr, ptr %9, align 8
  %13 = getelementptr i8, ptr %12, i64 8
  %.val = load ptr, ptr %13, align 8
  %14 = getelementptr inbounds nuw ptr, ptr %.val, i64 %indvars.iv
  %15 = load ptr, ptr %14, align 8
  %.val19 = load ptr, ptr %10, align 8
  %16 = getelementptr i8, ptr %.val19, i64 8
  %.val19.val = load ptr, ptr %16, align 8
  %17 = getelementptr inbounds nuw ptr, ptr %.val19.val, i64 %indvars.iv
  %18 = load ptr, ptr %17, align 8
  %19 = tail call ptr @Abc_ObjName(ptr noundef %18) #9
  %20 = tail call ptr @strstr(ptr noundef nonnull dereferenceable(1) %19, ptr noundef nonnull dereferenceable(1) @.str) #11
  %.not = icmp eq ptr %20, null
  br i1 %.not, label %50, label %21

21:                                               ; preds = %11
  %22 = getelementptr i8, ptr %15, i64 8
  %.val2132 = load ptr, ptr %22, align 8
  %23 = load i32, ptr %4, align 4
  %24 = load i32, ptr %3, align 8
  %25 = icmp eq i32 %23, %24
  br i1 %25, label %26, label %.Vec_PtrGrow.exit11_crit_edge.i

.Vec_PtrGrow.exit11_crit_edge.i:                  ; preds = %21
  %.pre.i = load ptr, ptr %6, align 8
  br label %Vec_PtrPush.exit

26:                                               ; preds = %21
  %27 = icmp slt i32 %23, 16
  br i1 %27, label %28, label %35

28:                                               ; preds = %26
  %29 = load ptr, ptr %6, align 8
  %.not9.i.i = icmp eq ptr %29, null
  br i1 %.not9.i.i, label %32, label %30

30:                                               ; preds = %28
  %31 = tail call dereferenceable_or_null(128) ptr @realloc(ptr noundef nonnull %29, i64 noundef 128) #12
  br label %Vec_PtrGrow.exit.i

32:                                               ; preds = %28
  %33 = tail call noalias dereferenceable_or_null(128) ptr @malloc(i64 noundef 128) #10
  br label %Vec_PtrGrow.exit.i

Vec_PtrGrow.exit.i:                               ; preds = %32, %30
  %34 = phi ptr [ %31, %30 ], [ %33, %32 ]
  store ptr %34, ptr %6, align 8
  store i32 16, ptr %3, align 8
  br label %Vec_PtrPush.exit

35:                                               ; preds = %26
  %36 = shl nuw nsw i32 %23, 1
  %37 = load ptr, ptr %6, align 8
  %.not9.i10.i = icmp eq ptr %37, null
  %38 = zext nneg i32 %36 to i64
  %39 = shl nuw nsw i64 %38, 3
  br i1 %.not9.i10.i, label %42, label %40

40:                                               ; preds = %35
  %41 = tail call ptr @realloc(ptr noundef nonnull %37, i64 noundef %39) #12
  br label %44

42:                                               ; preds = %35
  %43 = tail call noalias ptr @malloc(i64 noundef %39) #10
  br label %44

44:                                               ; preds = %42, %40
  %45 = phi ptr [ %41, %40 ], [ %43, %42 ]
  store ptr %45, ptr %6, align 8
  store i32 %36, ptr %3, align 8
  br label %Vec_PtrPush.exit

Vec_PtrPush.exit:                                 ; preds = %.Vec_PtrGrow.exit11_crit_edge.i, %Vec_PtrGrow.exit.i, %44
  %46 = phi ptr [ %.pre.i, %.Vec_PtrGrow.exit11_crit_edge.i ], [ %45, %44 ], [ %34, %Vec_PtrGrow.exit.i ]
  %47 = add nsw i32 %23, 1
  store i32 %47, ptr %4, align 4
  %48 = sext i32 %23 to i64
  %49 = getelementptr inbounds ptr, ptr %46, i64 %48
  store ptr %.val2132, ptr %49, align 8
  br label %58

50:                                               ; preds = %11
  %.val20 = load ptr, ptr %10, align 8
  %51 = getelementptr i8, ptr %.val20, i64 8
  %.val20.val = load ptr, ptr %51, align 8
  %52 = getelementptr inbounds nuw ptr, ptr %.val20.val, i64 %indvars.iv
  %53 = load ptr, ptr %52, align 8
  %54 = tail call ptr @Abc_ObjName(ptr noundef %53) #9
  %55 = tail call ptr @strstr(ptr noundef nonnull dereferenceable(1) %54, ptr noundef nonnull dereferenceable(1) @.str.1) #11
  %.not17 = icmp eq ptr %55, null
  br i1 %.not17, label %58, label %56

56:                                               ; preds = %50
  %57 = getelementptr i8, ptr %15, i64 8
  %.val2233 = load ptr, ptr %57, align 8
  br label %58

58:                                               ; preds = %Vec_PtrPush.exit, %56, %50
  %.1 = phi ptr [ %.01635, %Vec_PtrPush.exit ], [ %.val2233, %56 ], [ %.01635, %50 ]
  %indvars.iv.next = add nuw nsw i64 %indvars.iv, 1
  %.val18 = load i32, ptr %7, align 8
  %59 = sext i32 %.val18 to i64
  %60 = icmp slt i64 %indvars.iv.next, %59
  br i1 %60, label %11, label %.critedge, !llvm.loop !6

.critedge:                                        ; preds = %58
  %.pre = load i32, ptr %4, align 4
  %.pre38 = load i32, ptr %3, align 8
  %61 = icmp eq i32 %.pre, %.pre38
  br i1 %61, label %63, label %.Vec_PtrGrow.exit11_crit_edge.i25

.Vec_PtrGrow.exit11_crit_edge.i25:                ; preds = %2, %.critedge
  %.016.lcssa41 = phi ptr [ %.1, %.critedge ], [ null, %2 ]
  %62 = phi i32 [ %.pre, %.critedge ], [ 0, %2 ]
  %.pre.i27 = load ptr, ptr %6, align 8
  br label %Vec_PtrPush.exit31

63:                                               ; preds = %.critedge
  %64 = icmp slt i32 %.pre38, 16
  br i1 %64, label %65, label %72

65:                                               ; preds = %63
  %66 = load ptr, ptr %6, align 8
  %.not9.i.i29 = icmp eq ptr %66, null
  br i1 %.not9.i.i29, label %69, label %67

67:                                               ; preds = %65
  %68 = tail call dereferenceable_or_null(128) ptr @realloc(ptr noundef nonnull %66, i64 noundef 128) #12
  br label %Vec_PtrGrow.exit.i30

69:                                               ; preds = %65
  %70 = tail call noalias dereferenceable_or_null(128) ptr @malloc(i64 noundef 128) #10
  br label %Vec_PtrGrow.exit.i30

Vec_PtrGrow.exit.i30:                             ; preds = %69, %67
  %71 = phi ptr [ %68, %67 ], [ %70, %69 ]
  store ptr %71, ptr %6, align 8
  store i32 16, ptr %3, align 8
  br label %Vec_PtrPush.exit31

72:                                               ; preds = %63
  %73 = shl nuw nsw i32 %.pre38, 1
  %74 = load ptr, ptr %6, align 8
  %.not9.i10.i28 = icmp eq ptr %74, null
  %75 = zext nneg i32 %73 to i64
  %76 = shl nuw nsw i64 %75, 3
  br i1 %.not9.i10.i28, label %79, label %77

77:                                               ; preds = %72
  %78 = tail call ptr @realloc(ptr noundef nonnull %74, i64 noundef %76) #12
  br label %81

79:                                               ; preds = %72
  %80 = tail call noalias ptr @malloc(i64 noundef %76) #10
  br label %81

81:                                               ; preds = %79, %77
  %82 = phi ptr [ %78, %77 ], [ %80, %79 ]
  store ptr %82, ptr %6, align 8
  store i32 %73, ptr %3, align 8
  br label %Vec_PtrPush.exit31

Vec_PtrPush.exit31:                               ; preds = %.Vec_PtrGrow.exit11_crit_edge.i25, %Vec_PtrGrow.exit.i30, %81
  %.016.lcssa40 = phi ptr [ %.016.lcssa41, %.Vec_PtrGrow.exit11_crit_edge.i25 ], [ %.1, %81 ], [ %.1, %Vec_PtrGrow.exit.i30 ]
  %83 = phi i32 [ %62, %.Vec_PtrGrow.exit11_crit_edge.i25 ], [ %.pre, %81 ], [ %.pre, %Vec_PtrGrow.exit.i30 ]
  %84 = phi ptr [ %.pre.i27, %.Vec_PtrGrow.exit11_crit_edge.i25 ], [ %82, %81 ], [ %71, %Vec_PtrGrow.exit.i30 ]
  %85 = add nsw i32 %83, 1
  store i32 %85, ptr %4, align 4
  %86 = sext i32 %83 to i64
  %87 = getelementptr inbounds ptr, ptr %84, i64 %86
  store ptr %.016.lcssa40, ptr %87, align 8
  ret ptr %3
}